; Function Attrs: nounwind uwtable
define ptr @wolfTLSv1_1_server_method_ex(ptr noundef readnone captures(none) %0) local_unnamed_addr #0 {
  %2 = tail call ptr @wolfSSL_Malloc(i64 noundef 4) #17
  %.not = icmp eq ptr %2, null
  br i1 %.not, label %5, label %3

3:                                                ; preds = %1
  tail call void @InitSSL_Method(ptr noundef nonnull %2, i16 515) #17
  %4 = getelementptr inbounds nuw i8, ptr %2, i64 2
  store i8 0, ptr %4, align 1, !tbaa !207
  br label %5

5:                                                ; preds = %3, %1
  ret ptr %2
}